; Function Attrs: mustprogress nofree nounwind willreturn memory(read) uwtable
define hidden noundef zeroext i1 @_ZN5osgeo4proj8internal8ci_equalEPKcS3_(ptr noundef readonly captures(none) %0, ptr noundef readonly captures(none) %1) local_unnamed_addr #2 personality ptr @__gxx_personality_v0 {
  %3 = tail call i64 @strlen(ptr noundef nonnull dereferenceable(1) %0) #24
  %4 = tail call i64 @strlen(ptr noundef nonnull dereferenceable(1) %1) #24
  %.not = icmp eq i64 %3, %4
  br i1 %.not, label %5, label %8

5:                                                ; preds = %2
  %6 = tail call i32 @strncasecmp(ptr noundef nonnull readonly %0, ptr noundef nonnull readonly %1, i64 noundef %3) #24
  %7 = icmp eq i32 %6, 0
  br label %8

8:                                                ; preds = %2, %5
  %.0 = phi i1 [ %7, %5 ], [ false, %2 ]
  ret i1 %.0
}